target datalayout = "e-m:e-p270:32:32-p271:32:32-p272:64:64-i64:64-i128:128-f80:128-n8:16:32:64-S128"
target triple = "x86_64-pc-linux-gnu"

%struct._object = type { i64, ptr }
%"class.nanobind::handle" = type { ptr }
%"struct.nanobind::detail::tuple.88" = type { %"struct.nanobind::detail::type_caster.89" }
%"struct.nanobind::detail::type_caster.89" = type { %"class.nanobind::handle" }
%class.anon.803 = type { i8 }

; Function Attrs: inlinehint mustprogress nounwind optsize uwtable
define internal void @_ZL10_Py_INCREFP7_object(ptr noundef %0) #11 {
  %2 = alloca ptr, align 8
  store ptr %0, ptr %2, align 8, !tbaa !3
  %3 = load ptr, ptr %2, align 8, !tbaa !3
  %4 = getelementptr inbounds nuw %struct._object, ptr %3, i32 0, i32 0
  %5 = load i64, ptr %4, align 8, !tbaa !20
  %6 = add nsw i64 %5, 1
  store i64 %6, ptr %4, align 8, !tbaa !20
  ret void
}

; Function Attrs: inlinehint mustprogress optsize uwtable
define internal void @_ZL11_Py_XINCREFP7_object(ptr noundef %0) #9 {
  %2 = alloca ptr, align 8
  store ptr %0, ptr %2, align 8, !tbaa !3
  %3 = load ptr, ptr %2, align 8, !tbaa !3
  %4 = icmp ne ptr %3, null
  br i1 %4, label %5, label %7

5:                                                ; preds = %1
  %6 = load ptr, ptr %2, align 8, !tbaa !3
  call void @_ZL10_Py_INCREFP7_object(ptr noundef %6) #20
  br label %7

7:                                                ; preds = %5, %1
  ret void
}

; Function Attrs: noinline noreturn nounwind optsize uwtable
define linkonce_odr hidden void @__clang_call_terminate(ptr noundef %0) #7 comdat {
  %2 = call ptr @__cxa_begin_catch(ptr %0) #21
  call void @_ZSt9terminatev() #23
  unreachable
}

; Function Attrs: alwaysinline mustprogress nounwind optsize uwtable
define linkonce_odr hidden noundef zeroext i1 @_ZN8nanobind6handle6check_ES0_(ptr %0) #5 comdat align 2 {
  %2 = alloca %"class.nanobind::handle", align 8
  %3 = getelementptr inbounds nuw %"class.nanobind::handle", ptr %2, i32 0, i32 0
  store ptr %0, ptr %3, align 8
  ret i1 true
}

; Function Attrs: alwaysinline mustprogress nounwind optsize uwtable
define linkonce_odr hidden void @_ZN8nanobind6handleC2EDnNS_6detail7steal_tE(ptr noundef nonnull align 8 dereferenceable(8) %0, ptr %1) unnamed_addr #5 comdat align 2 {
  %3 = alloca ptr, align 8
  %4 = alloca ptr, align 8
  store ptr %0, ptr %3, align 8, !tbaa !12
  store ptr %1, ptr %4, align 8, !tbaa !191
  %5 = load ptr, ptr %3, align 8
  %6 = getelementptr inbounds nuw %"class.nanobind::handle", ptr %5, i32 0, i32 0
  store ptr null, ptr %6, align 8, !tbaa !14
  ret void
}

; Function Attrs: mustprogress nounwind optsize uwtable
define linkonce_odr hidden noundef nonnull align 8 dereferenceable(8) ptr @_ZNKR8nanobind6handle7inc_refEv(ptr noundef nonnull align 8 dereferenceable(8) %0) #8 comdat align 2 personality ptr @__gxx_personality_v0 {
  %2 = alloca ptr, align 8
  store ptr %0, ptr %2, align 8, !tbaa !12
  %3 = load ptr, ptr %2, align 8
  %4 = getelementptr inbounds nuw %"class.nanobind::handle", ptr %3, i32 0, i32 0
  %5 = load ptr, ptr %4, align 8, !tbaa !14
  invoke void @_ZL11_Py_XINCREFP7_object(ptr noundef %5) #20
          to label %6 unwind label %7

6:                                                ; preds = %1
  ret ptr %3

7:                                                ; preds = %1
  %8 = landingpad { ptr, i32 }
          catch ptr null
  %9 = extractvalue { ptr, i32 } %8, 0
  call void @__clang_call_terminate(ptr %9) #23
  unreachable
}

; Function Attrs: alwaysinline mustprogress nounwind optsize uwtable
define linkonce_odr hidden noundef zeroext i1 @_ZN8nanobind10isinstanceINS_6handleEEEbS1_(ptr %0) #5 comdat personality ptr @__gxx_personality_v0 {
  %2 = alloca %"class.nanobind::handle", align 8
  %3 = alloca %"class.nanobind::handle", align 8
  %4 = getelementptr inbounds nuw %"class.nanobind::handle", ptr %2, i32 0, i32 0
  store ptr %0, ptr %4, align 8
  call void @llvm.memcpy.p0.p0.i64(ptr align 8 %3, ptr align 8 %2, i64 8, i1 false)
  %5 = getelementptr inbounds nuw %"class.nanobind::handle", ptr %3, i32 0, i32 0
  %6 = load ptr, ptr %5, align 8
  %7 = invoke noundef zeroext i1 @_ZN8nanobind6handle6check_ES0_(ptr %6) #20
          to label %8 unwind label %9

8:                                                ; preds = %1
  ret i1 %7

9:                                                ; preds = %1
  %10 = landingpad { ptr, i32 }
          catch ptr null
  %11 = extractvalue { ptr, i32 } %10, 0
  call void @__clang_call_terminate(ptr %11) #23
  unreachable
}

; Function Attrs: mustprogress optsize uwtable
define linkonce_odr hidden void @_ZN8nanobind6detail11type_casterINS_6handleEiEC2Ev(ptr noundef nonnull align 8 dereferenceable(8) %0) unnamed_addr #0 comdat align 2 {
  %2 = alloca ptr, align 8
  store ptr %0, ptr %2, align 8, !tbaa !227
  %3 = load ptr, ptr %2, align 8
  %4 = getelementptr inbounds nuw %"struct.nanobind::detail::type_caster.89", ptr %3, i32 0, i32 0
  call void @_ZN8nanobind6handleC2EDnNS_6detail7steal_tE(ptr noundef nonnull align 8 dereferenceable(8) %4, ptr null) #20
  ret void
}

; Function Attrs: alwaysinline mustprogress nounwind optsize uwtable
define linkonce_odr hidden noundef ptr @_ZNK8nanobind6handle3ptrEv(ptr noundef nonnull align 8 dereferenceable(8) %0) #5 comdat align 2 {
  %2 = alloca ptr, align 8
  store ptr %0, ptr %2, align 8, !tbaa !12
  %3 = load ptr, ptr %2, align 8
  %4 = getelementptr inbounds nuw %"class.nanobind::handle", ptr %3, i32 0, i32 0
  %5 = load ptr, ptr %4, align 8, !tbaa !14
  ret ptr %5
}

; Function Attrs: mustprogress nounwind optsize uwtable
define linkonce_odr hidden ptr @_ZN8nanobind6detail11type_casterINS_6handleEiE8from_cppEOS2_NS_9rv_policyEPNS0_12cleanup_listE(ptr noundef nonnull align 8 dereferenceable(8) %0, i32 noundef %1, ptr noundef %2) #8 comdat align 2 {
  %4 = alloca %"class.nanobind::handle", align 8
  %5 = alloca ptr, align 8
  %6 = alloca i32, align 4
  %7 = alloca ptr, align 8
  store ptr %0, ptr %5, align 8, !tbaa !12
  store i32 %1, ptr %6, align 4, !tbaa !26
  store ptr %2, ptr %7, align 8, !tbaa !155
  %8 = load ptr, ptr %5, align 8, !tbaa !12
  %9 = call noundef nonnull align 8 dereferenceable(8) ptr @_ZNKR8nanobind6handle7inc_refEv(ptr noundef nonnull align 8 dereferenceable(8) %8) #22
  call void @llvm.memcpy.p0.p0.i64(ptr align 8 %4, ptr align 8 %9, i64 8, i1 false)
  %10 = getelementptr inbounds nuw %"class.nanobind::handle", ptr %4, i32 0, i32 0
  %11 = load ptr, ptr %10, align 8
  ret ptr %11
}

; Function Attrs: inlinehint mustprogress nounwind optsize uwtable
define internal ptr @_ZZN8nanobind6detail18make_iterator_implINS0_15iterator_accessIN9__gnu_cxx17__normal_iteratorIPSt10shared_ptrIZL38nanobind_init_test_stl_bind_vector_extRNS_7module_EE2ElESt6vectorIS9_SaIS9_EEEEEELNS_9rv_policyE1ESE_SE_RS9_JEEENS_5typedINS_8iteratorEJT3_EEENS_6handleEPKcT1_T2_DpOT4_ENKUlSM_E_clESM_(ptr noundef nonnull align 1 dereferenceable(1) %0, ptr %1) #11 align 2 {
  %3 = alloca %"class.nanobind::handle", align 8
  %4 = alloca %"class.nanobind::handle", align 8
  %5 = alloca ptr, align 8
  %6 = getelementptr inbounds nuw %"class.nanobind::handle", ptr %4, i32 0, i32 0
  store ptr %1, ptr %6, align 8
  store ptr %0, ptr %5, align 8, !tbaa !55
  call void @llvm.memcpy.p0.p0.i64(ptr align 8 %3, ptr align 8 %4, i64 8, i1 false)
  %7 = getelementptr inbounds nuw %"class.nanobind::handle", ptr %3, i32 0, i32 0
  %8 = load ptr, ptr %7, align 8
  ret ptr %8
}

; Function Attrs: mustprogress nounwind optsize uwtable
define linkonce_odr hidden noundef nonnull align 8 dereferenceable(8) ptr @_ZN8nanobind6detail11type_casterINS_6handleEiEcvOS2_Ev(ptr noundef nonnull align 8 dereferenceable(8) %0) #8 comdat align 2 {
  %2 = alloca ptr, align 8
  store ptr %0, ptr %2, align 8, !tbaa !227
  %3 = load ptr, ptr %2, align 8
  %4 = getelementptr inbounds nuw %"struct.nanobind::detail::type_caster.89", ptr %3, i32 0, i32 0
  ret ptr %4
}

; Function Attrs: mustprogress nounwind optsize uwtable
define linkonce_odr hidden noundef zeroext i1 @_ZN8nanobind6detail11type_casterINS_6handleEiE11from_pythonES2_hPNS0_12cleanup_listE(ptr noundef nonnull align 8 dereferenceable(8) %0, ptr %1, i8 noundef zeroext %2, ptr noundef %3) #8 comdat align 2 {
  %5 = alloca i1, align 1
  %6 = alloca %"class.nanobind::handle", align 8
  %7 = alloca ptr, align 8
  %8 = alloca i8, align 1
  %9 = alloca ptr, align 8
  %10 = alloca %"class.nanobind::handle", align 8
  %11 = getelementptr inbounds nuw %"class.nanobind::handle", ptr %6, i32 0, i32 0
  store ptr %1, ptr %11, align 8
  store ptr %0, ptr %7, align 8, !tbaa !227
  store i8 %2, ptr %8, align 1, !tbaa !44
  store ptr %3, ptr %9, align 8, !tbaa !155
  %12 = load ptr, ptr %7, align 8
  call void @llvm.memcpy.p0.p0.i64(ptr align 8 %10, ptr align 8 %6, i64 8, i1 false)
  %13 = getelementptr inbounds nuw %"class.nanobind::handle", ptr %10, i32 0, i32 0
  %14 = load ptr, ptr %13, align 8
  %15 = call noundef zeroext i1 @_ZN8nanobind10isinstanceINS_6handleEEEbS1_(ptr %14) #22
  br i1 %15, label %17, label %16

16:                                               ; preds = %4
  store i1 false, ptr %5, align 1
  br label %19

17:                                               ; preds = %4
  %18 = getelementptr inbounds nuw %"struct.nanobind::detail::type_caster.89", ptr %12, i32 0, i32 0
  call void @llvm.memcpy.p0.p0.i64(ptr align 8 %18, ptr align 8 %6, i64 8, i1 false)
  store i1 true, ptr %5, align 1
  br label %19

19:                                               ; preds = %17, %16
  %20 = load i1, ptr %5, align 1
  ret i1 %20
}

; Function Attrs: alwaysinline mustprogress nounwind optsize uwtable
define linkonce_odr hidden void @_ZN8nanobind6handleC2EPK7_object(ptr noundef nonnull align 8 dereferenceable(8) %0, ptr noundef %1) unnamed_addr #5 comdat align 2 {
  %3 = alloca ptr, align 8
  %4 = alloca ptr, align 8
  store ptr %0, ptr %3, align 8, !tbaa !12
  store ptr %1, ptr %4, align 8, !tbaa !3
  %5 = load ptr, ptr %3, align 8
  %6 = getelementptr inbounds nuw %"class.nanobind::handle", ptr %5, i32 0, i32 0
  %7 = load ptr, ptr %4, align 8, !tbaa !3
  store ptr %7, ptr %6, align 8, !tbaa !14
  ret void
}

; Function Attrs: alwaysinline mustprogress nounwind optsize uwtable
define linkonce_odr hidden noundef nonnull align 8 dereferenceable(8) ptr @_ZN8nanobind6detail5tupleIJNS0_11type_casterINS_6handleEiEEEE3getILm0EEERDav(ptr noundef nonnull align 8 dereferenceable(8) %0) #5 comdat align 2 {
  %2 = alloca ptr, align 8
  store ptr %0, ptr %2, align 8, !tbaa !225
  %3 = load ptr, ptr %2, align 8
  %4 = getelementptr inbounds nuw %"struct.nanobind::detail::tuple.88", ptr %3, i32 0, i32 0
  ret ptr %4
}

; Function Attrs: mustprogress optsize uwtable
define linkonce_odr hidden void @_ZN8nanobind6detail5tupleIJNS0_11type_casterINS_6handleEiEEEEC2Ev(ptr noundef nonnull align 8 dereferenceable(8) %0) unnamed_addr #0 comdat align 2 {
  %2 = alloca ptr, align 8
  store ptr %0, ptr %2, align 8, !tbaa !225
  %3 = load ptr, ptr %2, align 8
  %4 = getelementptr inbounds nuw %"struct.nanobind::detail::tuple.88", ptr %3, i32 0, i32 0
  call void @_ZN8nanobind6detail11type_casterINS_6handleEiEC2Ev(ptr noundef nonnull align 8 dereferenceable(8) %4) #20
  ret void
}

; Function Attrs: alwaysinline mustprogress optsize uwtable
define internal noundef ptr @_ZZN8nanobind6detail11func_createILb0ELb1EZNS0_18make_iterator_implINS0_15iterator_accessIN9__gnu_cxx17__normal_iteratorIPSt10shared_ptrIZL38nanobind_init_test_stl_bind_vector_extRNS_7module_EE2ElESt6vectorISA_SaISA_EEEEEELNS_9rv_policyE1ESF_SF_RSA_JEEENS_5typedINS_8iteratorEJT3_EEENS_6handleEPKcT1_T2_DpOT4_EUlSN_E_SN_JSN_EJLm0EEJNS_5scopeENS_4nameENS_9is_methodEEEEP7_objectOSQ_PFSR_DpT3_ESt16integer_sequenceImJXspT4_EEEDpRKT5_ENKUlPvPS10_PhSH_PNS0_12cleanup_listEE_clES1C_S1D_S1E_SH_S1G_(ptr noundef nonnull align 1 dereferenceable(1) %0, ptr noundef %1, ptr noundef %2, ptr noundef %3, i32 noundef %4, ptr noundef %5) #3 align 2 {
  %7 = alloca ptr, align 8
  %8 = alloca ptr, align 8
  %9 = alloca ptr, align 8
  %10 = alloca ptr, align 8
  %11 = alloca ptr, align 8
  %12 = alloca i32, align 4
  %13 = alloca ptr, align 8
  %14 = alloca ptr, align 8
  %15 = alloca %"struct.nanobind::detail::tuple.88", align 8
  %16 = alloca %"class.nanobind::handle", align 8
  %17 = alloca i32, align 4
  %18 = alloca ptr, align 8
  %19 = alloca %"class.nanobind::handle", align 8
  %20 = alloca %"class.nanobind::handle", align 8
  %21 = alloca %"class.nanobind::handle", align 8
  store ptr %0, ptr %8, align 8, !tbaa !55
  store ptr %1, ptr %9, align 8, !tbaa !55
  store ptr %2, ptr %10, align 8, !tbaa !153
  store ptr %3, ptr %11, align 8, !tbaa !24
  store i32 %4, ptr %12, align 4, !tbaa !26
  store ptr %5, ptr %13, align 8, !tbaa !155
  call void @llvm.lifetime.start.p0(i64 8, ptr %14) #21
  %22 = load ptr, ptr %9, align 8, !tbaa !55
  store ptr %22, ptr %14, align 8, !tbaa !1139
  call void @llvm.lifetime.start.p0(i64 8, ptr %15) #21
  call void @_ZN8nanobind6detail5tupleIJNS0_11type_casterINS_6handleEiEEEEC2Ev(ptr noundef nonnull align 8 dereferenceable(8) %15) #20
  %23 = call noundef nonnull align 8 dereferenceable(8) ptr @_ZN8nanobind6detail5tupleIJNS0_11type_casterINS_6handleEiEEEE3getILm0EEERDav(ptr noundef nonnull align 8 dereferenceable(8) %15) #20
  %24 = load ptr, ptr %10, align 8, !tbaa !153
  %25 = getelementptr inbounds nuw ptr, ptr %24, i64 0
  %26 = load ptr, ptr %25, align 8, !tbaa !3
  call void @_ZN8nanobind6handleC2EPK7_object(ptr noundef nonnull align 8 dereferenceable(8) %16, ptr noundef %26) #20
  %27 = load ptr, ptr %11, align 8, !tbaa !24
  %28 = getelementptr inbounds nuw i8, ptr %27, i64 0
  %29 = load i8, ptr %28, align 1, !tbaa !44
  %30 = load ptr, ptr %13, align 8, !tbaa !155
  %31 = getelementptr inbounds nuw %"class.nanobind::handle", ptr %16, i32 0, i32 0
  %32 = load ptr, ptr %31, align 8
  %33 = call noundef zeroext i1 @_ZN8nanobind6detail11type_casterINS_6handleEiE11from_pythonES2_hPNS0_12cleanup_listE(ptr noundef nonnull align 8 dereferenceable(8) %23, ptr %32, i8 noundef zeroext %29, ptr noundef %30) #22
  br i1 %33, label %35, label %34

34:                                               ; preds = %6
  store ptr inttoptr (i64 1 to ptr), ptr %7, align 8
  store i32 1, ptr %17, align 4
  br label %49

35:                                               ; preds = %6
  call void @llvm.lifetime.start.p0(i64 8, ptr %18) #21
  call void @llvm.lifetime.start.p0(i64 8, ptr %19) #21
  call void @llvm.lifetime.start.p0(i64 8, ptr %20) #21
  %36 = load ptr, ptr %14, align 8, !tbaa !1139
  %37 = call noundef nonnull align 8 dereferenceable(8) ptr @_ZN8nanobind6detail5tupleIJNS0_11type_casterINS_6handleEiEEEE3getILm0EEERDav(ptr noundef nonnull align 8 dereferenceable(8) %15) #20
  %38 = call noundef nonnull align 8 dereferenceable(8) ptr @_ZN8nanobind6detail11type_casterINS_6handleEiEcvOS2_Ev(ptr noundef nonnull align 8 dereferenceable(8) %37) #20
  call void @llvm.memcpy.p0.p0.i64(ptr align 8 %21, ptr align 8 %38, i64 8, i1 false)
  %39 = getelementptr inbounds nuw %"class.nanobind::handle", ptr %21, i32 0, i32 0
  %40 = load ptr, ptr %39, align 8
  %41 = call ptr @_ZZN8nanobind6detail18make_iterator_implINS0_15iterator_accessIN9__gnu_cxx17__normal_iteratorIPSt10shared_ptrIZL38nanobind_init_test_stl_bind_vector_extRNS_7module_EE2ElESt6vectorIS9_SaIS9_EEEEEELNS_9rv_policyE1ESE_SE_RS9_JEEENS_5typedINS_8iteratorEJT3_EEENS_6handleEPKcT1_T2_DpOT4_ENKUlSM_E_clESM_(ptr noundef nonnull align 1 dereferenceable(1) %36, ptr %40) #20
  %42 = getelementptr inbounds nuw %"class.nanobind::handle", ptr %20, i32 0, i32 0
  store ptr %41, ptr %42, align 8
  %43 = load i32, ptr %12, align 4, !tbaa !26
  %44 = load ptr, ptr %13, align 8, !tbaa !155
  %45 = call ptr @_ZN8nanobind6detail11type_casterINS_6handleEiE8from_cppEOS2_NS_9rv_policyEPNS0_12cleanup_listE(ptr noundef nonnull align 8 dereferenceable(8) %20, i32 noundef %43, ptr noundef %44) #22
  %46 = getelementptr inbounds nuw %"class.nanobind::handle", ptr %19, i32 0, i32 0
  store ptr %45, ptr %46, align 8
  %47 = call noundef ptr @_ZNK8nanobind6handle3ptrEv(ptr noundef nonnull align 8 dereferenceable(8) %19) #20
  store ptr %47, ptr %18, align 8, !tbaa !3
  call void @llvm.lifetime.end.p0(i64 8, ptr %20) #21
  call void @llvm.lifetime.end.p0(i64 8, ptr %19) #21
  %48 = load ptr, ptr %18, align 8, !tbaa !3
  store ptr %48, ptr %7, align 8
  store i32 1, ptr %17, align 4
  call void @llvm.lifetime.end.p0(i64 8, ptr %18) #21
  br label %49

49:                                               ; preds = %35, %34
  call void @llvm.lifetime.end.p0(i64 8, ptr %15) #21
  call void @llvm.lifetime.end.p0(i64 8, ptr %14) #21
  %50 = load ptr, ptr %7, align 8
  ret ptr %50
}

; Function Attrs: inlinehint mustprogress optsize uwtable
define internal noundef ptr @_ZZN8nanobind6detail11func_createILb0ELb1EZNS0_18make_iterator_implINS0_15iterator_accessIN9__gnu_cxx17__normal_iteratorIPSt10shared_ptrIZL38nanobind_init_test_stl_bind_vector_extRNS_7module_EE2ElESt6vectorISA_SaISA_EEEEEELNS_9rv_policyE1ESF_SF_RSA_JEEENS_5typedINS_8iteratorEJT3_EEENS_6handleEPKcT1_T2_DpOT4_EUlSN_E_SN_JSN_EJLm0EEJNS_5scopeENS_4nameENS_9is_methodEEEEP7_objectOSQ_PFSR_DpT3_ESt16integer_sequenceImJXspT4_EEEDpRKT5_ENUlPvPS10_PhSH_PNS0_12cleanup_listEE_8__invokeES1C_S1D_S1E_SH_S1G_(ptr noundef %0, ptr noundef %1, ptr noundef %2, i32 noundef %3, ptr noundef %4) #9 align 2 {
  %6 = alloca ptr, align 8
  %7 = alloca ptr, align 8
  %8 = alloca ptr, align 8
  %9 = alloca i32, align 4
  %10 = alloca ptr, align 8
  %11 = alloca %class.anon.803, align 1
  store ptr %0, ptr %6, align 8, !tbaa !55
  store ptr %1, ptr %7, align 8, !tbaa !153
  store ptr %2, ptr %8, align 8, !tbaa !24
  store i32 %3, ptr %9, align 4, !tbaa !26
  store ptr %4, ptr %10, align 8, !tbaa !155
  %12 = load ptr, ptr %6, align 8, !tbaa !55
  %13 = load ptr, ptr %7, align 8, !tbaa !153
  %14 = load ptr, ptr %8, align 8, !tbaa !24
  %15 = load i32, ptr %9, align 4, !tbaa !26
  %16 = load ptr, ptr %10, align 8, !tbaa !155
  %17 = call noundef ptr @_ZZN8nanobind6detail11func_createILb0ELb1EZNS0_18make_iterator_implINS0_15iterator_accessIN9__gnu_cxx17__normal_iteratorIPSt10shared_ptrIZL38nanobind_init_test_stl_bind_vector_extRNS_7module_EE2ElESt6vectorISA_SaISA_EEEEEELNS_9rv_policyE1ESF_SF_RSA_JEEENS_5typedINS_8iteratorEJT3_EEENS_6handleEPKcT1_T2_DpOT4_EUlSN_E_SN_JSN_EJLm0EEJNS_5scopeENS_4nameENS_9is_methodEEEEP7_objectOSQ_PFSR_DpT3_ESt16integer_sequenceImJXspT4_EEEDpRKT5_ENKUlPvPS10_PhSH_PNS0_12cleanup_listEE_clES1C_S1D_S1E_SH_S1G_(ptr noundef nonnull align 1 dereferenceable(1) %11, ptr noundef %12, ptr noundef %13, ptr noundef %14, i32 noundef %15, ptr noundef %16) #20
  ret ptr %17
}